target datalayout = "e-m:e-p270:32:32-p271:32:32-p272:64:64-i64:64-i128:128-f80:128-n8:16:32:64-S128"
target triple = "x86_64-pc-linux-gnu"

@.str.20 = private unnamed_addr constant [2 x i8] c"a\00", align 1

; Function Attrs: nounwind uwtable
define hidden void @php_mail_log_to_file(ptr noundef %0, ptr noundef %1, i64 noundef %2) #0 {
  %4 = alloca ptr, align 8
  %5 = alloca ptr, align 8
  %6 = alloca i64, align 8
  %7 = alloca i32, align 4
  %8 = alloca ptr, align 8
  store ptr %0, ptr %4, align 8
  store ptr %1, ptr %5, align 8
  store i64 %2, ptr %6, align 8
  store i32 1032, ptr %7, align 4
  %9 = load ptr, ptr %4, align 8
  %10 = load i32, ptr %7, align 4
  %11 = call ptr @_php_stream_open_wrapper_ex(ptr noundef %9, ptr noundef @.str.20, i32 noundef %10, ptr noundef null, ptr noundef null)
  store ptr %11, ptr %8, align 8
  %12 = load ptr, ptr %8, align 8
  %13 = icmp ne ptr %12, null
  br i1 %13, label %14, label %21

14:                                               ; preds = %3
  %15 = load ptr, ptr %8, align 8
  %16 = load ptr, ptr %5, align 8
  %17 = load i64, ptr %6, align 8
  %18 = call i64 @_php_stream_write(ptr noundef %15, ptr noundef %16, i64 noundef %17)
  %19 = load ptr, ptr %8, align 8
  %20 = call i32 @_php_stream_free(ptr noundef %19, i32 noundef 3)
  br label %21

21:                                               ; preds = %14, %3
  ret void
}