; Function Attrs: nounwind uwtable
define hidden void @php_mail_log_to_file(ptr noundef %0, ptr noundef %1, i64 noundef %2) local_unnamed_addr #0 {
  %4 = tail call ptr @_php_stream_open_wrapper_ex(ptr noundef %0, ptr noundef nonnull @.str.20, i32 noundef 1032, ptr noundef null, ptr noundef null) #11
  %.not = icmp eq ptr %4, null
  br i1 %.not, label %8, label %5

5:                                                ; preds = %3
  %6 = tail call i64 @_php_stream_write(ptr noundef nonnull %4, ptr noundef %1, i64 noundef %2) #11
  %7 = tail call i32 @_php_stream_free(ptr noundef nonnull %4, i32 noundef 3) #11
  br label %8

8:                                                ; preds = %5, %3
  ret void
}